     1                                 %line 1+1 in.asm
     2                                 
     3                                 
     4                                 
     5                                 
     6                                 
     7                                 
     8                                 
     9                                 
    10                                 
    11                                 
    12                                 
    13                                 
    14                                 
    15                                 
    16                                 
    17                                 [section .data]
    18                                 
    19                                 
    20                                 
    21                                 NULL equ 0
    22                                 
    23                                 TRUE equ 1
    24                                 FALSE equ 0
    25                                 
    26                                 EXIT_SUCCESS equ 0
    27                                 SYS_exit equ 60
    28                                 
    29                                 
    30                                 
    31                                 
    32 00000000 80100000A4FBFFFF06-    lst dd 4224, -1116, 1542, 1240, 1677
    33 00000000 060000D80400008D06-
    34 00000000 0000               
    35 00000014 9DF9FFFF740900001C-     dd -1635, 2420, 1820, 1246, -333
    36 00000014 070000DE040000B3FE-
    37 00000014 FFFF               
    38 00000028 0B09000029FFFFFFA6-     dd 2315, -215, 2726, 1140, 2565
    39 00000028 0A000074040000050A-
    40 00000028 0000               
    41 0000003C 370B00004E06000072-     dd 2871, 1614, 2418, 2513, 1422
    42 0000003C 090000D10900008E05-
    43 0000003C 0000               
    44 00000050 89FFFFFFBF0400000B-     dd -119, 1215, -1525, -712, 1441
    45 00000050 FAFFFF38FDFFFFA105-
    46 00000050 0000               
    47 00000064 DAF1FFFF25FDFFFF3F-     dd -3622, -731, -1729, 1615, 2724
    48 00000064 F9FFFF4F060000A40A-
    49 00000064 0000               
    50 00000078 C104000020FFFFFF2C-     dd 1217, -224, 1580, 1147, 2324
    51 00000078 0600007B0400001409-
    52 00000078 0000               
    53 0000008C 9105000018070000EE-     dd 1425, 1816, 1262, -2718, 1192
    54 0000008C 04000062F5FFFFA804-
    55 0000008C 0000               
    56 000000A0 65FAFFFFEB000000CC-     dd -1435, 235, 2764, -1615, 1310
    57 000000A0 0A0000B1F9FFFF1E05-
    58 000000A0 0000               
    59 000000B4 E5060000A207000039-     dd 1765, 1954, -967, 1515, 1556
    60 000000B4 FCFFFFEB0500001406-
    61 000000B4 0000               
    62 000000C8 3E050000991C000014-     dd 1342, 7321, 1556, 2727, 1227
    63 000000C8 060000A70A0000CB04-
    64 000000C8 0000               
    65 000000DC 79F8FFFF66050000B9-     dd -1927, 1382, 1465, 3955, 1435
    66 000000DC 050000730F00009B05-
    67 000000DC 0000               
    68 000000F0 1FFFFFFF8DF6FFFF1A-     dd -225, -2419, -2534, -1345, 2467
    69 000000F0 F6FFFFBFFAFFFFA309-
    70 000000F0 0000               
    71 00000104 4F060000A707000037-     dd 1615, 1959, 1335, 2856, 2553
    72 00000104 050000280B0000F909-
    73 00000104 0000               
    74 00000118 F5FBFFFF29070000B8-     dd -1035, 1833, 1464, 1915, -1810
    75 00000118 0500007B070000EEF8-
    76 00000118 FFFF               
    77 0000012C B905000012060000F5-     dd 1465, 1554, -267, 1615, 1656
    78 0000012C FEFFFF4F0600007806-
    79 0000012C 0000               
    80 00000140 90080000C7FCFFFF85-     dd 2192, -825, 1925, 2312, 1725
    81 00000140 07000008090000BD06-
    82 00000140 0000               
    83 00000154 2BF6FFFFDA0500005B-     dd -2517, 1498, -677, 1475, 2034
    84 00000154 FDFFFFC3050000F207-
    85 00000154 0000               
    86 00000168 C70400005B0700006B-     dd 1223, 1883, -1173, 1350, 2415
    87 00000168 FBFFFF460500006F09-
    88 00000168 0000               
    89 0000017C B1FEFFFF650400005E-     dd -335, 1125, 1118, 1713, 3025
    90 0000017C 040000B1060000D10B-
    91 0000017C 0000               
    92 00000190 64000000               length dd 100
    93                                 
    94 00000194 00000000               lstMin dd 0
    95 00000198 00000000               lstMid dd 0
    96 0000019C 00000000               lstMax dd 0
    97 000001A0 00000000               lstSum dd 0
    98 000001A4 00000000               lstAve dd 0
    99                                 
   100 000001A8 00000000               negCnt dd 0
   101 000001AC 00000000               negSum dd 0
   102 000001B0 00000000               negAve dd 0
   103                                 
   104 000001B4 00000000               threeCnt dd 0
   105 000001B8 00000000               threeSum dd 0
   106 000001BC 00000000               threeAve dd 0
   107                                 
   108                                 
   109                                 
   110                                 [section .text]
   111                                 [global _start]
   112                                 _start:
   113                                 
   114                                 
   115 00000000 BB02000000             mov ebx, 2
   116 00000005 8B0425[00000000]       mov eax, dword[length]
   117 0000000C 99                     cdq
   118 0000000D F7FB                   idiv ebx
   119 0000000F 678B1C85[00000000]     mov ebx, dword[lst+eax*4]
   120 00000017 FFC8                   dec eax
   121 00000019 67031C85[00000000]     add ebx, dword[lst+eax*4]
   122 00000021 89D8                   mov eax, ebx
   123 00000023 BB02000000             mov ebx, 2
   124 00000028 99                     cdq
   125 00000029 F7FB                   idiv ebx
   126 0000002B 890425[00000000]       mov dword[lstMid], eax
   127                                 
   128                                 
   129 00000032 8B0C25[00000000]       mov ecx, dword[length]
   130 00000039 48C7C600000000         mov rsi, 0
   131 00000040 B800000000             mov eax, 0
   132                                 calcLoop:
   133                                 
   134 00000045 8B1CB5[00000000]        mov ebx, dword[lst+rsi*4]
   135 0000004C 3B1C25[00000000]        cmp ebx, dword[lstMin]
   136 00000053 7C00                    jl isLess
   137 00000055 EB05                    jmp nLess
   138                                  isLess:
   139 00000057 891C25[00000000]        mov dword[lstMin], ebx
   140                                  nLess:
   141                                 
   142 0000005E 8B1CB5[00000000]        mov ebx, dword[lst+rsi*4]
   143 00000065 3B1C25[00000000]        cmp ebx, dword[lstMax]
   144 0000006C 7F00                    jg isMore
   145 0000006E EB05                    jmp nMore
   146                                  isMore:
   147 00000070 891C25[00000000]        mov dword[lstMax], ebx
   148                                  nMore:
   149                                 
   150 00000077 8B1CB5[00000000]        mov ebx, dword[lst+rsi*4]
   151 0000007E 83FB00                  cmp ebx, 0
   152 00000081 7C00                    jl isNeg
   153 00000083 EB23                    jmp nNeg
   154                                  isNeg:
   155                                 
   156 00000085 8B1C25[00000000]        mov ebx, dword[negCnt]
   157 0000008C FFC3                    inc ebx
   158 0000008E 891C25[00000000]        mov dword[negCnt], ebx
   159                                 
   160 00000095 8B1C25[00000000]        mov ebx, dword[negSum]
   161 0000009C 031CB5[00000000]        add ebx, dword[lst+rsi*4]
   162 000000A3 891C25[00000000]        mov dword[negSum], ebx
   163                                  nNeg:
   164 000000AA 890425[00000000]        mov dword[lstSum], eax
   165 000000B1 BB03000000              mov ebx, 3
   166 000000B6 8B04B5[00000000]        mov eax, dword[lst+rsi*4]
   167 000000BD 99                      cdq
   168 000000BE F7FB                    idiv ebx
   169 000000C0 8B0425[00000000]        mov eax, dword[lstSum]
   170 000000C7 83FA00                  cmp edx, 0
   171 000000CA 7400                    je divThree
   172 000000CC EB23                    jmp nDivThree
   173                                  divThree:
   174                                 
   175 000000CE 8B1C25[00000000]        mov ebx, dword[threeCnt]
   176 000000D5 FFC3                    inc ebx
   177 000000D7 891C25[00000000]        mov dword[threeCnt], ebx
   178                                 
   179 000000DE 8B1C25[00000000]        mov ebx, dword[threeSum]
   180 000000E5 031CB5[00000000]        add ebx, dword[lst+rsi*4]
   181 000000EC 891C25[00000000]        mov dword[threeSum], ebx
   182                                  nDivThree:
   183                                 
   184 000000F3 0304B5[00000000]        add eax, dword[lst+rsi*4]
   185                                 
   186 000000FA 48FFC6                  inc rsi
   187 000000FD 48FFC9                  dec rcx
   188 00000100 4883F900                cmp rcx, 0
   189 00000104 7403                    je calcLoopDone
   190 00000106 E935FFFFFF              jmp calcLoop
   191                                  calcLoopDone:
   192 0000010B 890425[00000000]       mov dword[lstSum], eax
   193                                 
   194 00000112 99                     cdq
   195 00000113 F73C25[00000000]       idiv dword[length]
   196 0000011A 890425[00000000]       mov dword[lstAve], eax
   197                                 
   198                                 
   199 00000121 8B0425[00000000]       mov eax, dword[negSum]
   200 00000128 99                     cdq
   201 00000129 F73C25[00000000]       idiv dword[negCnt]
   202 00000130 890425[00000000]       mov dword[negAve], eax
   203                                 
   204                                 
   205 00000137 8B0425[00000000]       mov eax, dword[threeSum]
   206 0000013E 99                     cdq
   207 0000013F F73C25[00000000]       idiv dword[threeCnt]
   208 00000146 890425[00000000]       mov dword[threeAve], eax
   209                                 
   210                                 
   211 0000014D 8B0425[00000000]       mov eax, dword[lstSum]
   212 00000154 99                     cdq
   213 00000155 F73C25[00000000]       idiv dword[length]
   214 0000015C 890425[00000000]       mov dword[lstAve], eax
   215                                 
   216                                 
   217                                 
   218                                 
   219                                 last:
   220 00000163 B83C000000              mov eax, SYS_exit
   221 00000168 BB00000000              mov ebx, EXIT_SUCCESS
   222 0000016D 0F05                    syscall
